; Function Attrs: nounwind uwtable
define dso_local void @llvm_emit_debug_local_var(ptr nocapture noundef %0, ptr nocapture noundef %1) local_unnamed_addr #0 {
  %3 = getelementptr inbounds i8, ptr %0, i64 304
  %4 = load ptr, ptr %3, align 8
  %.not = icmp eq ptr %4, null
  br i1 %.not, label %llvm_emit_debug_location.exit, label %5

5:                                                ; preds = %2
  %6 = getelementptr inbounds i8, ptr %1, i64 16
  %7 = load i64, ptr %6, align 8
  %.sroa.4.0.extract.shift.i = lshr i64 %7, 32
  %.sroa.4.0.extract.trunc.i = trunc nuw i64 %.sroa.4.0.extract.shift.i to i32
  %8 = getelementptr inbounds i8, ptr %0, i64 64
  %9 = load ptr, ptr %8, align 8
  %10 = getelementptr inbounds i8, ptr %0, i64 16
  %11 = load ptr, ptr %10, align 8
  %12 = icmp eq ptr %9, %11
  br i1 %12, label %llvm_emit_debug_location.exit, label %13

13:                                               ; preds = %5
  %14 = tail call ptr @LLVMGetCurrentDebugLocation2(ptr noundef %9) #8
  %.not.i = icmp eq ptr %14, null
  br i1 %.not.i, label %19, label %15

15:                                               ; preds = %13
  %16 = getelementptr inbounds i8, ptr %0, i64 432
  %17 = load i64, ptr %16, align 8
  %18 = icmp eq i64 %17, %7
  br i1 %18, label %llvm_emit_debug_location.exit, label %19

19:                                               ; preds = %15, %13
  %20 = getelementptr inbounds i8, ptr %0, i64 352
  %21 = load ptr, ptr %20, align 8
  %.not.i.i = icmp eq ptr %21, null
  br i1 %.not.i.i, label %.critedge.i.i, label %22

22:                                               ; preds = %19
  %23 = getelementptr inbounds i8, ptr %21, i64 -8
  %24 = load i32, ptr %23, align 4
  %25 = icmp eq i32 %24, 0
  br i1 %25, label %.critedge.i.i, label %26

26:                                               ; preds = %22
  %27 = add i32 %24, -1
  %28 = zext i32 %27 to i64
  %29 = getelementptr inbounds ptr, ptr %21, i64 %28
  br label %llvm_debug_current_scope.exit.i

.critedge.i.i:                                    ; preds = %22, %19
  %30 = getelementptr inbounds i8, ptr %0, i64 336
  br label %llvm_debug_current_scope.exit.i

llvm_debug_current_scope.exit.i:                  ; preds = %.critedge.i.i, %26
  %.016.in.i.i = phi ptr [ %30, %.critedge.i.i ], [ %29, %26 ]
  %.016.i.i = load ptr, ptr %.016.in.i.i, align 8
  %31 = trunc i64 %7 to i32
  %32 = lshr i32 %31, 24
  %33 = getelementptr inbounds i8, ptr %0, i64 432
  store i64 %7, ptr %33, align 8
  %34 = getelementptr inbounds i8, ptr %0, i64 40
  %35 = load ptr, ptr %34, align 8
  %36 = tail call i32 @llvm.umax.i32(i32 %.sroa.4.0.extract.trunc.i, i32 1)
  %.not31.i = icmp ult i32 %31, 16777216
  %37 = select i1 %.not31.i, i32 1, i32 %32
  %38 = tail call ptr @LLVMDIBuilderCreateDebugLocation(ptr noundef %35, i32 noundef %36, i32 noundef %37, ptr noundef %.016.i.i, ptr noundef null) #8
  %39 = load ptr, ptr %8, align 8
  tail call void @LLVMSetCurrentDebugLocation2(ptr noundef %39, ptr noundef %38) #8
  br label %llvm_emit_debug_location.exit

llvm_emit_debug_location.exit:                    ; preds = %llvm_debug_current_scope.exit.i, %15, %5, %2
  %40 = getelementptr inbounds i8, ptr %1, i64 20
  %41 = load i32, ptr %40, align 4
  %42 = getelementptr inbounds i8, ptr %1, i64 19
  %43 = load i8, ptr %42, align 1
  %44 = load ptr, ptr %1, align 8
  %45 = getelementptr inbounds i8, ptr %0, i64 352
  %46 = load ptr, ptr %45, align 8
  %.not.i35 = icmp eq ptr %46, null
  br i1 %.not.i35, label %.critedge.i, label %47

47:                                               ; preds = %llvm_emit_debug_location.exit
  %48 = getelementptr inbounds i8, ptr %46, i64 -8
  %49 = load i32, ptr %48, align 4
  %50 = icmp eq i32 %49, 0
  br i1 %50, label %.critedge.i, label %51

51:                                               ; preds = %47
  %52 = add i32 %49, -1
  %53 = zext i32 %52 to i64
  %54 = getelementptr inbounds ptr, ptr %46, i64 %53
  br label %llvm_debug_current_scope.exit

.critedge.i:                                      ; preds = %47, %llvm_emit_debug_location.exit
  %55 = getelementptr inbounds i8, ptr %0, i64 336
  br label %llvm_debug_current_scope.exit

llvm_debug_current_scope.exit:                    ; preds = %51, %.critedge.i
  %.016.in.i = phi ptr [ %55, %.critedge.i ], [ %54, %51 ]
  %.not34 = icmp eq ptr %44, null
  %spec.store.select1 = select i1 %.not34, ptr @.str, ptr %44
  %narrow = tail call i8 @llvm.umax.i8(i8 %43, i8 1)
  %spec.store.select2 = zext i8 %narrow to i32
  %spec.store.select = tail call i32 @llvm.umax.i32(i32 %41, i32 1)
  %.016.i = load ptr, ptr %.016.in.i, align 8
  %56 = load ptr, ptr %3, align 8
  %57 = tail call i64 @strlen(ptr noundef nonnull dereferenceable(1) %spec.store.select1) #9
  %58 = getelementptr inbounds i8, ptr %0, i64 328
  %59 = load ptr, ptr %58, align 8
  %60 = getelementptr inbounds i8, ptr %1, i64 72
  %61 = load ptr, ptr %60, align 8
  %62 = tail call fastcc ptr @llvm_get_debug_type_internal(ptr noundef nonnull %0, ptr noundef %61, ptr noundef %59)
  %63 = load i32, ptr getelementptr inbounds (%struct.BuildTarget, ptr @active_target, i64 0, i32 42), align 8
  %64 = icmp ne i32 %63, 0
  %65 = zext i1 %64 to i32
  %66 = getelementptr inbounds i8, ptr %1, i64 40
  %67 = load i32, ptr %66, align 8
  %68 = tail call ptr @LLVMDIBuilderCreateAutoVariable(ptr noundef %56, ptr noundef %.016.i, ptr noundef nonnull %spec.store.select1, i64 noundef %57, ptr noundef %59, i32 noundef %spec.store.select, ptr noundef %62, i32 noundef %65, i32 noundef 0, i32 noundef %67) #8
  %69 = getelementptr inbounds i8, ptr %1, i64 96
  store ptr %68, ptr %69, align 8
  %70 = load ptr, ptr %3, align 8
  %71 = getelementptr inbounds i8, ptr %1, i64 32
  %72 = load ptr, ptr %71, align 8
  %73 = tail call ptr @LLVMDIBuilderCreateExpression(ptr noundef %70, ptr noundef null, i64 noundef 0) #8
  %74 = getelementptr inbounds i8, ptr %0, i64 40
  %75 = load ptr, ptr %74, align 8
  %76 = tail call ptr @LLVMDIBuilderCreateDebugLocation(ptr noundef %75, i32 noundef %spec.store.select, i32 noundef %spec.store.select2, ptr noundef %.016.i, ptr noundef null) #8
  %77 = getelementptr inbounds i8, ptr %0, i64 64
  %78 = load ptr, ptr %77, align 8
  %79 = tail call ptr @LLVMGetInsertBlock(ptr noundef %78) #8
  %80 = tail call ptr @LLVMDIBuilderInsertDeclareAtEnd(ptr noundef %70, ptr noundef %72, ptr noundef %68, ptr noundef %73, ptr noundef %76, ptr noundef %79) #8
  ret void
}